
test2.exe:     file format elf32-tradlittlemips


Disassembly of section .text.startup:

80000000 <main>:
80000000:	00003025 	move	a2,zero
80000004:	3c060001 	lui	a2,0x1
80000008:	00002025 	move	a0,zero
8000000c:	3c040001 	lui	a0,0x1
80000010:	00002825 	move	a1,zero
80000014:	3c050001 	lui	a1,0x1
80000018:	00001025 	move	v0,zero
8000001c:	3c021010 	lui	v0,0x1010
80000020:	3c038000 	lui	v1,0x8000
80000024:	24671000 	addiu	a3,v1,4096
80000028:	ace20000 	sw	v0,0(a3)
8000002c:	3c02a0a0 	lui	v0,0xa0a0
80000030:	8ce20000 	lw	v0,0(a3)
80000034:	3c021010 	lui	v0,0x1010
80000038:	24631008 	addiu	v1,v1,4104
8000003c:	ac620000 	sw	v0,0(v1)
80000040:	00853021 	addu	a2,a0,a1
80000044:	00a22021 	addu	a0,a1,v0
80000048:	00001025 	move	v0,zero
8000004c:	3c020001 	lui	v0,0x1
80000050:	1000fffe 	b	8000004c <main+0x4c>
80000054:	00001025 	move	v0,zero

Disassembly of section .MIPS.abiflags:

80000058 <.MIPS.abiflags>:
80000058:	01200000 	0x1200000
8000005c:	01000101 	0x1000101
	...
80000068:	00000001 	movf	zero,zero,$fcc0
8000006c:	00000000 	nop

Disassembly of section .reginfo:

00000000 <.reginfo>:
   0:	000000fc 	0xfc
	...
  14:	80000870 	lb	zero,2160(zero)

Disassembly of section .pdr:

00000000 <.pdr>:
   0:	80000000 	lb	zero,0(zero)
	...
  18:	0000001d 	0x1d
  1c:	0000001f 	0x1f

Disassembly of section .comment:

00000000 <.comment>:
   0:	3a434347 	xori	v1,s2,0x4347
   4:	6e492820 	0x6e492820
   8:	696e6567 	0x696e6567
   c:	30322063 	andi	s2,at,0x2063
  10:	302e3631 	andi	t6,at,0x3631
  14:	35202933 	ori	zero,t1,0x2933
  18:	302e322e 	andi	t6,at,0x322e
	...

Disassembly of section .gnu.attributes:

00000000 <.gnu.attributes>:
   0:	00000f41 	0xf41
   4:	756e6700 	jalx	5b99c00 <main-0x7a466400>
   8:	00070100 	sll	zero,a3,0x4
   c:	01040000 	0x1040000

Disassembly of section .debug_info:

00000000 <.debug_info>:
   0:	00000074 	teq	zero,zero,0x1
   4:	00000004 	sllv	zero,zero,zero
   8:	01040000 	0x1040000
   c:	00000000 	nop
  10:	00002b0c 	syscall	0xac
  14:	00003800 	sll	a3,zero,0x0
	...
  24:	00330200 	0x330200
  28:	01010000 	0x1010000
  2c:	80000000 	lb	zero,0(zero)
  30:	00000058 	0x58
  34:	00709c01 	0x709c01
  38:	61030000 	0x61030000
  3c:	70020100 	0x70020100
  40:	01000000 	0x1000000
  44:	00620356 	0x620356
  48:	00700201 	0x700201
  4c:	54010000 	bnel	zero,at,50 <main-0x7fffffb0>
  50:	01006303 	0x1006303
  54:	00007002 	srl	t6,zero,0x0
  58:	03550100 	0x3550100
  5c:	02010064 	0x2010064
  60:	00000070 	tge	zero,zero,0x1
  64:	41045201 	0x41045201
  68:	400d0100 	0x400d0100
  6c:	00800000 	0x800000
  70:	69050405 	0x69050405
  74:	0000746e 	0x746e

Disassembly of section .debug_abbrev:

00000000 <.debug_abbrev>:
   0:	25011101 	addiu	at,t0,4353
   4:	030b130e 	0x30b130e
   8:	550e1b0e 	bnel	t0,t6,6c44 <main-0x7fff93bc>
   c:	10011117 	beq	zero,at,446c <main-0x7fffbb94>
  10:	02000017 	0x2000017
  14:	193f012e 	0x193f012e
  18:	0b3a0e03 	j	ce8380c <main-0x7317c7f4>
  1c:	01870b3b 	0x1870b3b
  20:	12011119 	beq	s0,at,4488 <main-0x7fffbb78>
  24:	97184006 	lhu	t8,16390(t8)
  28:	13011942 	beq	t8,at,6534 <main-0x7fff9acc>
  2c:	34030000 	li	v1,0x0
  30:	3a080300 	xori	t0,s0,0x300
  34:	490b3b0b 	bc2tl	$cc2,ec64 <main-0x7fff139c>
  38:	00180213 	0x180213
  3c:	000a0400 	sll	zero,t2,0x10
  40:	0b3a0803 	j	ce8200c <main-0x7317dff4>
  44:	01110b3b 	0x1110b3b
  48:	24050000 	li	a1,0
  4c:	3e0b0b00 	0x3e0b0b00
  50:	0008030b 	0x8030b
	...

Disassembly of section .debug_aranges:

00000000 <.debug_aranges>:
   0:	0000001c 	0x1c
   4:	00000002 	srl	zero,zero,0x0
   8:	00040000 	sll	zero,a0,0x0
   c:	00000000 	nop
  10:	80000000 	lb	zero,0(zero)
  14:	00000058 	0x58
	...

Disassembly of section .debug_ranges:

00000000 <.debug_ranges>:
   0:	80000000 	lb	zero,0(zero)
   4:	80000058 	lb	zero,88(zero)
	...

Disassembly of section .debug_line:

00000000 <.debug_line>:
   0:	00000042 	srl	zero,zero,0x1
   4:	001e0002 	srl	zero,s8,0x0
   8:	01010000 	0x1010000
   c:	000d0efb 	0xd0efb
  10:	01010101 	0x1010101
  14:	01000000 	0x1000000
  18:	00010000 	sll	zero,at,0x0
  1c:	74736574 	jalx	1cd95d0 <main-0x7e326a30>
  20:	00632e32 	tlt	v1,v1,0xb8
  24:	00000000 	nop
  28:	00020500 	sll	zero,v0,0x14
  2c:	01800000 	0x1800000
  30:	83831314 	lb	v1,4884(gp)
  34:	4bbb8383 	c2	0x1bb8383
  38:	4b844b4b 	c2	0x1844b4b
  3c:	01040200 	0x1040200
  40:	0010024d 	break	0x10,0x9
  44:	Address 0x0000000000000044 is out of bounds.


Disassembly of section .debug_str:

00000000 <.debug_str>:
   0:	20554e47 	addi	s5,v0,20039
   4:	20313143 	addi	s1,at,12611
   8:	2e322e35 	sltiu	s2,s1,11829
   c:	6d2d2030 	0x6d2d2030
  10:	2d206c65 	sltiu	zero,t1,27749
  14:	7370696d 	0x7370696d
  18:	2d203233 	sltiu	zero,t1,12851
  1c:	6962616d 	0x6962616d
  20:	2032333d 	addi	s2,at,13117
  24:	2d20672d 	sltiu	zero,t1,26413
  28:	7400324f 	jalx	c93c <main-0x7fff36c4>
  2c:	32747365 	andi	s4,s3,0x7365
  30:	6d00632e 	0x6d00632e
  34:	006e6961 	0x6e6961
  38:	6d6f682f 	0x6d6f682f
  3c:	75672f65 	jalx	59cbd94 <main-0x7a63426c>
  40:	2f747365 	sltiu	s4,k1,29541
  44:	75797379 	jalx	5e5cde4 <main-0x7a1a321c>
  48:	772f6e61 	jalx	cbdb984 <main-0x7342467c>
  4c:	2f6b726f 	sltiu	t3,k1,29295
  50:	65736163 	0x65736163
  54:	7361632f 	0x7361632f
  58:	Address 0x0000000000000058 is out of bounds.


Disassembly of section .debug_frame:

00000000 <.debug_frame>:
   0:	0000000c 	syscall
   4:	ffffffff 	sdc3	$31,-1(ra)
   8:	7c010001 	0x7c010001
   c:	001d0d1f 	0x1d0d1f
  10:	0000000c 	syscall
  14:	00000000 	nop
  18:	80000000 	lb	zero,0(zero)
  1c:	00000058 	0x58
